; Function Attrs: inlinehint nounwind uwtable
define internal void @git_path_buf(ptr noundef nonnull initializes((8, 16)) %0, ptr readnone captures(none) %1, ...) unnamed_addr #9 {
  %3 = alloca [1 x %struct.__va_list_tag], align 16
  call void @llvm.lifetime.start.p0(i64 24, ptr nonnull %3) #17
  %4 = getelementptr inbounds nuw i8, ptr %0, i64 8
  store i64 0, ptr %4, align 8, !tbaa !101
  %5 = getelementptr inbounds nuw i8, ptr %0, i64 16
  %6 = load ptr, ptr %5, align 8, !tbaa !99
  %.not9.i = icmp eq ptr %6, @strbuf_slopbuf
  br i1 %.not9.i, label %strbuf_setlen.exit, label %7

7:                                                ; preds = %2
  store i8 0, ptr %6, align 1, !tbaa !77
  br label %strbuf_setlen.exit

strbuf_setlen.exit:                               ; preds = %2, %7
  call void @llvm.va_start.p0(ptr nonnull %3)
  %8 = load ptr, ptr @the_repository, align 8, !tbaa !17
  call void @repo_git_pathv(ptr noundef %8, ptr noundef null, ptr noundef nonnull %0, ptr noundef nonnull @.str.17, ptr noundef nonnull %3) #17
  call void @llvm.va_end.p0(ptr nonnull %3)
  call void @llvm.lifetime.end.p0(i64 24, ptr nonnull %3) #17
  ret void
}